target datalayout = "e-m:e-p270:32:32-p271:32:32-p272:64:64-i64:64-i128:128-f80:128-n8:16:32:64-S128"
target triple = "x86_64-pc-linux-gnu"

%struct.Node = type { i32 }
%struct.ForEachState = type { ptr, i32 }
%struct.List = type { i32, i32, i32, ptr, [0 x %union.ListCell] }
%union.ListCell = type { ptr }
%struct.Expr = type { i32 }
%struct.QualCost = type { double, double }
%struct.RestrictInfo = type { i32, ptr, i8, i8, i8, i8, i8, i8, i32, i32, i32, ptr, ptr, ptr, ptr, ptr, ptr, ptr, i32, ptr, %struct.QualCost, double, double, ptr, ptr, ptr, ptr, ptr, ptr, i8, i32, double, double, double, double, i32, i32 }
%struct.OpExpr = type { %struct.Expr, i32, i32, i32, i8, i32, i32, ptr, i32 }

; Function Attrs: inlinehint nounwind uwtable
define internal ptr @newNode(i64 noundef %0, i32 noundef %1) #4 {
  %3 = alloca i64, align 8
  %4 = alloca i32, align 4
  %5 = alloca ptr, align 8
  store i64 %0, ptr %3, align 8
  store i32 %1, ptr %4, align 4
  call void @llvm.lifetime.start.p0(i64 8, ptr %5) #10
  %6 = load i64, ptr %3, align 8
  %7 = call ptr @palloc0(i64 noundef %6)
  store ptr %7, ptr %5, align 8
  %8 = load i32, ptr %4, align 4
  %9 = load ptr, ptr %5, align 8
  %10 = getelementptr inbounds nuw %struct.Node, ptr %9, i32 0, i32 0
  store i32 %8, ptr %10, align 4
  %11 = load ptr, ptr %5, align 8
  call void @llvm.lifetime.end.p0(i64 8, ptr %5) #10
  ret ptr %11
}

; Function Attrs: nounwind uwtable
define internal ptr @get_switched_clauses(ptr noundef %0, ptr noundef %1) #0 {
  %3 = alloca ptr, align 8
  %4 = alloca ptr, align 8
  %5 = alloca ptr, align 8
  %6 = alloca ptr, align 8
  %7 = alloca %struct.ForEachState, align 8
  %8 = alloca ptr, align 8
  %9 = alloca ptr, align 8
  %10 = alloca ptr, align 8
  store ptr %0, ptr %3, align 8
  store ptr %1, ptr %4, align 8
  call void @llvm.lifetime.start.p0(i64 8, ptr %5) #10
  store ptr null, ptr %5, align 8
  call void @llvm.lifetime.start.p0(i64 8, ptr %6) #10
  call void @llvm.lifetime.start.p0(i64 16, ptr %7) #10
  %11 = getelementptr inbounds nuw %struct.ForEachState, ptr %7, i32 0, i32 0
  %12 = load ptr, ptr %3, align 8
  store ptr %12, ptr %11, align 8
  %13 = getelementptr inbounds nuw %struct.ForEachState, ptr %7, i32 0, i32 1
  store i32 0, ptr %13, align 8
  %14 = getelementptr i8, ptr %7, i64 12
  call void @llvm.memset.p0.i64(ptr align 4 %14, i8 0, i64 4, i1 false)
  br label %15

15:                                               ; preds = %107, %2
  %16 = getelementptr inbounds nuw %struct.ForEachState, ptr %7, i32 0, i32 0
  %17 = load ptr, ptr %16, align 8
  %18 = icmp ne ptr %17, null
  br i1 %18, label %19, label %36

19:                                               ; preds = %15
  %20 = getelementptr inbounds nuw %struct.ForEachState, ptr %7, i32 0, i32 1
  %21 = load i32, ptr %20, align 8
  %22 = getelementptr inbounds nuw %struct.ForEachState, ptr %7, i32 0, i32 0
  %23 = load ptr, ptr %22, align 8
  %24 = getelementptr inbounds nuw %struct.List, ptr %23, i32 0, i32 1
  %25 = load i32, ptr %24, align 4
  %26 = icmp slt i32 %21, %25
  br i1 %26, label %27, label %36

27:                                               ; preds = %19
  %28 = getelementptr inbounds nuw %struct.ForEachState, ptr %7, i32 0, i32 0
  %29 = load ptr, ptr %28, align 8
  %30 = getelementptr inbounds nuw %struct.List, ptr %29, i32 0, i32 3
  %31 = load ptr, ptr %30, align 8
  %32 = getelementptr inbounds nuw %struct.ForEachState, ptr %7, i32 0, i32 1
  %33 = load i32, ptr %32, align 8
  %34 = sext i32 %33 to i64
  %35 = getelementptr inbounds %union.ListCell, ptr %31, i64 %34
  store ptr %35, ptr %6, align 8
  br label %37

36:                                               ; preds = %19, %15
  store ptr null, ptr %6, align 8
  br label %37

37:                                               ; preds = %36, %27
  %38 = phi i32 [ 1, %27 ], [ 0, %36 ]
  %39 = icmp ne i32 %38, 0
  br i1 %39, label %41, label %40

40:                                               ; preds = %37
  call void @llvm.lifetime.end.p0(i64 16, ptr %7) #10
  br label %111

41:                                               ; preds = %37
  call void @llvm.lifetime.start.p0(i64 8, ptr %8) #10
  %42 = load ptr, ptr %6, align 8
  %43 = load ptr, ptr %42, align 8
  store ptr %43, ptr %8, align 8
  call void @llvm.lifetime.start.p0(i64 8, ptr %9) #10
  %44 = load ptr, ptr %8, align 8
  %45 = getelementptr inbounds nuw %struct.RestrictInfo, ptr %44, i32 0, i32 1
  %46 = load ptr, ptr %45, align 8
  store ptr %46, ptr %9, align 8
  %47 = load ptr, ptr %8, align 8
  %48 = getelementptr inbounds nuw %struct.RestrictInfo, ptr %47, i32 0, i32 16
  %49 = load ptr, ptr %48, align 8
  %50 = load ptr, ptr %4, align 8
  %51 = call zeroext i1 @bms_is_subset(ptr noundef %49, ptr noundef %50)
  br i1 %51, label %52, label %100

52:                                               ; preds = %41
  call void @llvm.lifetime.start.p0(i64 8, ptr %10) #10
  %53 = call ptr @newNode(i64 noundef 48, i32 noundef 17)
  store ptr %53, ptr %10, align 8
  %54 = load ptr, ptr %9, align 8
  %55 = getelementptr inbounds nuw %struct.OpExpr, ptr %54, i32 0, i32 1
  %56 = load i32, ptr %55, align 4
  %57 = load ptr, ptr %10, align 8
  %58 = getelementptr inbounds nuw %struct.OpExpr, ptr %57, i32 0, i32 1
  store i32 %56, ptr %58, align 4
  %59 = load ptr, ptr %10, align 8
  %60 = getelementptr inbounds nuw %struct.OpExpr, ptr %59, i32 0, i32 2
  store i32 0, ptr %60, align 8
  %61 = load ptr, ptr %9, align 8
  %62 = getelementptr inbounds nuw %struct.OpExpr, ptr %61, i32 0, i32 3
  %63 = load i32, ptr %62, align 4
  %64 = load ptr, ptr %10, align 8
  %65 = getelementptr inbounds nuw %struct.OpExpr, ptr %64, i32 0, i32 3
  store i32 %63, ptr %65, align 4
  %66 = load ptr, ptr %9, align 8
  %67 = getelementptr inbounds nuw %struct.OpExpr, ptr %66, i32 0, i32 4
  %68 = load i8, ptr %67, align 8, !range !4, !noundef !5
  %69 = trunc i8 %68 to i1
  %70 = load ptr, ptr %10, align 8
  %71 = getelementptr inbounds nuw %struct.OpExpr, ptr %70, i32 0, i32 4
  %72 = zext i1 %69 to i8
  store i8 %72, ptr %71, align 8
  %73 = load ptr, ptr %9, align 8
  %74 = getelementptr inbounds nuw %struct.OpExpr, ptr %73, i32 0, i32 5
  %75 = load i32, ptr %74, align 4
  %76 = load ptr, ptr %10, align 8
  %77 = getelementptr inbounds nuw %struct.OpExpr, ptr %76, i32 0, i32 5
  store i32 %75, ptr %77, align 4
  %78 = load ptr, ptr %9, align 8
  %79 = getelementptr inbounds nuw %struct.OpExpr, ptr %78, i32 0, i32 6
  %80 = load i32, ptr %79, align 8
  %81 = load ptr, ptr %10, align 8
  %82 = getelementptr inbounds nuw %struct.OpExpr, ptr %81, i32 0, i32 6
  store i32 %80, ptr %82, align 8
  %83 = load ptr, ptr %9, align 8
  %84 = getelementptr inbounds nuw %struct.OpExpr, ptr %83, i32 0, i32 7
  %85 = load ptr, ptr %84, align 8
  %86 = call ptr @list_copy(ptr noundef %85)
  %87 = load ptr, ptr %10, align 8
  %88 = getelementptr inbounds nuw %struct.OpExpr, ptr %87, i32 0, i32 7
  store ptr %86, ptr %88, align 8
  %89 = load ptr, ptr %9, align 8
  %90 = getelementptr inbounds nuw %struct.OpExpr, ptr %89, i32 0, i32 8
  %91 = load i32, ptr %90, align 8
  %92 = load ptr, ptr %10, align 8
  %93 = getelementptr inbounds nuw %struct.OpExpr, ptr %92, i32 0, i32 8
  store i32 %91, ptr %93, align 8
  %94 = load ptr, ptr %10, align 8
  call void @CommuteOpExpr(ptr noundef %94)
  %95 = load ptr, ptr %5, align 8
  %96 = load ptr, ptr %10, align 8
  %97 = call ptr @lappend(ptr noundef %95, ptr noundef %96)
  store ptr %97, ptr %5, align 8
  %98 = load ptr, ptr %8, align 8
  %99 = getelementptr inbounds nuw %struct.RestrictInfo, ptr %98, i32 0, i32 29
  store i8 0, ptr %99, align 8
  call void @llvm.lifetime.end.p0(i64 8, ptr %10) #10
  br label %106

100:                                              ; preds = %41
  %101 = load ptr, ptr %5, align 8
  %102 = load ptr, ptr %9, align 8
  %103 = call ptr @lappend(ptr noundef %101, ptr noundef %102)
  store ptr %103, ptr %5, align 8
  %104 = load ptr, ptr %8, align 8
  %105 = getelementptr inbounds nuw %struct.RestrictInfo, ptr %104, i32 0, i32 29
  store i8 1, ptr %105, align 8
  br label %106

106:                                              ; preds = %100, %52
  call void @llvm.lifetime.end.p0(i64 8, ptr %9) #10
  call void @llvm.lifetime.end.p0(i64 8, ptr %8) #10
  br label %107

107:                                              ; preds = %106
  %108 = getelementptr inbounds nuw %struct.ForEachState, ptr %7, i32 0, i32 1
  %109 = load i32, ptr %108, align 8
  %110 = add i32 %109, 1
  store i32 %110, ptr %108, align 8
  br label %15, !llvm.loop !56

111:                                              ; preds = %40
  %112 = load ptr, ptr %5, align 8
  call void @llvm.lifetime.end.p0(i64 8, ptr %6) #10
  call void @llvm.lifetime.end.p0(i64 8, ptr %5) #10
  ret ptr %112
}