; Function Attrs: nounwind uwtable
define internal fastcc ptr @get_switched_clauses(ptr noundef readonly captures(address_is_null) %0, ptr noundef %1) unnamed_addr #0 {
  %3 = getelementptr inbounds nuw i8, ptr %0, i64 4
  %.not = icmp eq ptr %0, null
  br i1 %.not, label %._crit_edge, label %.lr.ph

.lr.ph:                                           ; preds = %2
  %4 = getelementptr inbounds nuw i8, ptr %0, i64 16
  %5 = load i32, ptr %3, align 4
  %6 = icmp sgt i32 %5, 0
  br i1 %6, label %.lr.ph44, label %._crit_edge

._crit_edge:                                      ; preds = %40, %.lr.ph, %2
  %.0.lcssa = phi ptr [ null, %2 ], [ null, %.lr.ph ], [ %41, %40 ]
  ret ptr %.0.lcssa

.lr.ph44:                                         ; preds = %.lr.ph, %40
  %indvars.iv = phi i64 [ %indvars.iv.next, %40 ], [ 0, %.lr.ph ]
  %.03842 = phi ptr [ %41, %40 ], [ null, %.lr.ph ]
  %7 = load ptr, ptr %4, align 8
  %8 = getelementptr inbounds nuw %union.ListCell, ptr %7, i64 %indvars.iv
  %9 = load ptr, ptr %8, align 8
  %10 = getelementptr inbounds nuw i8, ptr %9, i64 8
  %11 = load ptr, ptr %10, align 8
  %12 = getelementptr inbounds nuw i8, ptr %9, i64 80
  %13 = load ptr, ptr %12, align 8
  %14 = tail call zeroext i1 @bms_is_subset(ptr noundef %13, ptr noundef %1) #12
  br i1 %14, label %15, label %40

15:                                               ; preds = %.lr.ph44
  %16 = tail call noundef ptr @palloc0(i64 noundef 48) #12
  store i32 17, ptr %16, align 4
  %17 = getelementptr inbounds nuw i8, ptr %11, i64 4
  %18 = load i32, ptr %17, align 4
  %19 = getelementptr inbounds nuw i8, ptr %16, i64 4
  store i32 %18, ptr %19, align 4
  %20 = getelementptr inbounds nuw i8, ptr %16, i64 8
  store i32 0, ptr %20, align 8
  %21 = getelementptr inbounds nuw i8, ptr %11, i64 12
  %22 = load i32, ptr %21, align 4
  %23 = getelementptr inbounds nuw i8, ptr %16, i64 12
  store i32 %22, ptr %23, align 4
  %24 = getelementptr inbounds nuw i8, ptr %11, i64 16
  %25 = load i8, ptr %24, align 8, !range !4, !noundef !5
  %26 = getelementptr inbounds nuw i8, ptr %16, i64 16
  store i8 %25, ptr %26, align 8
  %27 = getelementptr inbounds nuw i8, ptr %11, i64 20
  %28 = load i32, ptr %27, align 4
  %29 = getelementptr inbounds nuw i8, ptr %16, i64 20
  store i32 %28, ptr %29, align 4
  %30 = getelementptr inbounds nuw i8, ptr %11, i64 24
  %31 = load i32, ptr %30, align 8
  %32 = getelementptr inbounds nuw i8, ptr %16, i64 24
  store i32 %31, ptr %32, align 8
  %33 = getelementptr inbounds nuw i8, ptr %11, i64 32
  %34 = load ptr, ptr %33, align 8
  %35 = tail call ptr @list_copy(ptr noundef %34) #12
  %36 = getelementptr inbounds nuw i8, ptr %16, i64 32
  store ptr %35, ptr %36, align 8
  %37 = getelementptr inbounds nuw i8, ptr %11, i64 40
  %38 = load i32, ptr %37, align 8
  %39 = getelementptr inbounds nuw i8, ptr %16, i64 40
  store i32 %38, ptr %39, align 8
  tail call void @CommuteOpExpr(ptr noundef nonnull %16) #12
  br label %40

40:                                               ; preds = %.lr.ph44, %15
  %.sink47 = phi ptr [ %16, %15 ], [ %11, %.lr.ph44 ]
  %.sink = phi i8 [ 0, %15 ], [ 1, %.lr.ph44 ]
  %41 = tail call ptr @lappend(ptr noundef %.03842, ptr noundef %.sink47) #12
  %42 = getelementptr inbounds nuw i8, ptr %9, i64 192
  store i8 %.sink, ptr %42, align 8
  %indvars.iv.next = add nuw nsw i64 %indvars.iv, 1
  %43 = load i32, ptr %3, align 4
  %44 = sext i32 %43 to i64
  %45 = icmp slt i64 %indvars.iv.next, %44
  br i1 %45, label %.lr.ph44, label %._crit_edge
}